target datalayout = "e-m:e-p270:32:32-p271:32:32-p272:64:64-i64:64-i128:128-f80:128-n8:16:32:64-S128"
target triple = "x86_64-pc-linux-gnu"

%class.sexpr = type { i32, i32, i32, i32 }
%class.symbol = type { ptr }
%struct.sexpr_symbol = type { %class.sexpr, %class.symbol }
%class.sexpr_manager = type { %class.small_object_allocator, %class.ptr_vector }
%class.small_object_allocator = type { [32 x ptr], [32 x ptr], i64 }
%class.ptr_vector = type { %class.vector.3 }
%class.vector.3 = type { ptr }

; Function Attrs: mustprogress nounwind uwtable
define hidden void @_ZN5sexprC2ENS_6kind_tEjj(ptr noundef nonnull align 4 dereferenceable(16) %0, i32 noundef %1, i32 noundef %2, i32 noundef %3) unnamed_addr #4 align 2 {
  %5 = alloca ptr, align 8
  %6 = alloca i32, align 4
  %7 = alloca i32, align 4
  %8 = alloca i32, align 4
  store ptr %0, ptr %5, align 8, !tbaa !3
  store i32 %1, ptr %6, align 4, !tbaa !8
  store i32 %2, ptr %7, align 4, !tbaa !10
  store i32 %3, ptr %8, align 4, !tbaa !10
  %9 = load ptr, ptr %5, align 8
  %10 = getelementptr inbounds nuw %class.sexpr, ptr %9, i32 0, i32 0
  %11 = load i32, ptr %6, align 4, !tbaa !8
  store i32 %11, ptr %10, align 4, !tbaa !12
  %12 = getelementptr inbounds nuw %class.sexpr, ptr %9, i32 0, i32 1
  store i32 0, ptr %12, align 4, !tbaa !14
  %13 = getelementptr inbounds nuw %class.sexpr, ptr %9, i32 0, i32 2
  %14 = load i32, ptr %7, align 4, !tbaa !10
  store i32 %14, ptr %13, align 4, !tbaa !15
  %15 = getelementptr inbounds nuw %class.sexpr, ptr %9, i32 0, i32 3
  %16 = load i32, ptr %8, align 4, !tbaa !10
  store i32 %16, ptr %15, align 4, !tbaa !16
  ret void
}

; Function Attrs: mustprogress nounwind uwtable
define linkonce_odr hidden void @_ZN12sexpr_symbolC2EbRK6symboljj(ptr noundef nonnull align 8 dereferenceable(24) %0, i1 noundef zeroext %1, ptr noundef nonnull align 8 dereferenceable(8) %2, i32 noundef %3, i32 noundef %4) unnamed_addr #4 comdat align 2 {
  %6 = alloca ptr, align 8
  %7 = alloca i8, align 1
  %8 = alloca ptr, align 8
  %9 = alloca i32, align 4
  %10 = alloca i32, align 4
  store ptr %0, ptr %6, align 8, !tbaa !107
  %11 = zext i1 %1 to i8
  store i8 %11, ptr %7, align 1, !tbaa !55
  store ptr %2, ptr %8, align 8, !tbaa !105
  store i32 %3, ptr %9, align 4, !tbaa !10
  store i32 %4, ptr %10, align 4, !tbaa !10
  %12 = load ptr, ptr %6, align 8
  %13 = load i8, ptr %7, align 1, !tbaa !55, !range !59, !noundef !60
  %14 = trunc i8 %13 to i1
  %15 = select i1 %14, i32 4, i32 5
  %16 = load i32, ptr %9, align 4, !tbaa !10
  %17 = load i32, ptr %10, align 4, !tbaa !10
  call void @_ZN5sexprC2ENS_6kind_tEjj(ptr noundef nonnull align 4 dereferenceable(16) %12, i32 noundef %15, i32 noundef %16, i32 noundef %17)
  %18 = getelementptr inbounds nuw %struct.sexpr_symbol, ptr %12, i32 0, i32 1
  %19 = load ptr, ptr %8, align 8, !tbaa !105
  call void @llvm.memcpy.p0.p0.i64(ptr align 8 %18, ptr align 8 %19, i64 8, i1 false), !tbaa.struct !24
  ret void
}

; Function Attrs: mustprogress uwtable
define hidden noundef ptr @_ZN13sexpr_manager10mk_keywordERK6symboljj(ptr noundef nonnull align 8 dereferenceable(528) %0, ptr noundef nonnull align 8 dereferenceable(8) %1, i32 noundef %2, i32 noundef %3) #6 align 2 {
  %5 = alloca ptr, align 8
  %6 = alloca ptr, align 8
  %7 = alloca i32, align 4
  %8 = alloca i32, align 4
  store ptr %0, ptr %5, align 8, !tbaa !85
  store ptr %1, ptr %6, align 8, !tbaa !105
  store i32 %2, ptr %7, align 4, !tbaa !10
  store i32 %3, ptr %8, align 4, !tbaa !10
  %9 = load ptr, ptr %5, align 8
  %10 = getelementptr inbounds nuw %class.sexpr_manager, ptr %9, i32 0, i32 0
  %11 = call noundef ptr @_ZN22small_object_allocator8allocateEm(ptr noundef nonnull align 8 dereferenceable(520) %10, i64 noundef 24)
  %12 = load ptr, ptr %6, align 8, !tbaa !105
  %13 = load i32, ptr %7, align 4, !tbaa !10
  %14 = load i32, ptr %8, align 4, !tbaa !10
  call void @_ZN12sexpr_symbolC2EbRK6symboljj(ptr noundef nonnull align 8 dereferenceable(24) %11, i1 noundef zeroext true, ptr noundef nonnull align 8 dereferenceable(8) %12, i32 noundef %13, i32 noundef %14)
  ret ptr %11
}